; Function Attrs: nounwind uwtable
define internal i32 @dissect_snmp_Trap_PDU_U(i1 noundef zeroext %0, ptr noundef %1, i32 noundef %2, ptr noundef %3, ptr noundef %4, i32 noundef %5) #0 {
  store i32 0, ptr @generic_trap, align 4
  store ptr null, ptr @enterprise_oid, align 8
  %7 = load i32, ptr @ett_snmp_Trap_PDU_U, align 4
  %8 = tail call i32 @dissect_ber_sequence(i1 noundef zeroext %0, ptr noundef %3, ptr noundef %4, ptr noundef %1, i32 noundef %2, ptr noundef nonnull @Trap_PDU_U_sequence, i32 noundef %5, i32 noundef %7) #11
  %9 = load i32, ptr @snmp_version, align 4
  %.not = icmp eq i32 %9, 0
  br i1 %.not, label %14, label %10

10:                                               ; preds = %6
  %11 = getelementptr inbounds nuw i8, ptr %3, i64 16
  %12 = load ptr, ptr %11, align 8
  %13 = tail call ptr @expert_add_info(ptr noundef %12, ptr noundef %4, ptr noundef nonnull @ei_snmp_trap_pdu_obsolete) #11
  br label %14

14:                                               ; preds = %10, %6
  ret i32 %8
}